target datalayout = "e-m:e-p270:32:32-p271:32:32-p272:64:64-i64:64-i128:128-f80:128-n8:16:32:64-S128"
target triple = "x86_64-pc-linux-gnu"

@.str.151 = private unnamed_addr constant [47 x i8] c"locale name \22%s\22 contains non-ASCII characters\00", align 1
@.str.152 = private unnamed_addr constant [1 x i8] zeroinitializer, align 1
@.str.153 = private unnamed_addr constant [25 x i8] c"invalid locale name \22%s\22\00", align 1
@.str.154 = private unnamed_addr constant [57 x i8] c"If the locale name is specific to ICU, use --icu-locale.\00", align 1
@.str.155 = private unnamed_addr constant [67 x i8] c"invalid locale settings; check LANG and LC_* environment variables\00", align 1
@.str.156 = private unnamed_addr constant [19 x i8] c"setlocale() failed\00", align 1
@.str.157 = private unnamed_addr constant [34 x i8] c"failed to restore old locale \22%s\22\00", align 1

; Function Attrs: nounwind uwtable
define internal void @restore_global_locale(i32 noundef %0, ptr noundef %1) #0 {
  %3 = alloca i32, align 4
  %4 = alloca ptr, align 8
  store i32 %0, ptr %3, align 4
  store ptr %1, ptr %4, align 8
  %5 = load i32, ptr %3, align 4
  %6 = load ptr, ptr %4, align 8
  %7 = call ptr @setlocale(i32 noundef %5, ptr noundef %6) #10
  %8 = icmp ne ptr %7, null
  br i1 %8, label %13, label %9

9:                                                ; preds = %2
  br label %10

10:                                               ; preds = %9
  %11 = load ptr, ptr %4, align 8
  call void (i32, i32, ptr, ...) @pg_log_generic(i32 noundef 4, i32 noundef 0, ptr noundef @.str.157, ptr noundef %11)
  call void @exit(i32 noundef 1) #12
  unreachable

12:                                               ; No predecessors!
  br label %13

13:                                               ; preds = %12, %2
  %14 = load ptr, ptr %4, align 8
  call void @free(ptr noundef %14) #10
  ret void
}

; Function Attrs: nounwind uwtable
define internal ptr @save_global_locale(i32 noundef %0) #0 {
  %2 = alloca i32, align 4
  %3 = alloca ptr, align 8
  store i32 %0, ptr %2, align 4
  call void @llvm.lifetime.start.p0(i64 8, ptr %3) #10
  %4 = load i32, ptr %2, align 4
  %5 = call ptr @setlocale(i32 noundef %4, ptr noundef null) #10
  store ptr %5, ptr %3, align 8
  %6 = load ptr, ptr %3, align 8
  %7 = icmp ne ptr %6, null
  br i1 %7, label %12, label %8

8:                                                ; preds = %1
  br label %9

9:                                                ; preds = %8
  call void (i32, i32, ptr, ...) @pg_log_generic(i32 noundef 4, i32 noundef 0, ptr noundef @.str.156)
  call void @exit(i32 noundef 1) #12
  unreachable

10:                                               ; No predecessors!
  br label %11

11:                                               ; preds = %10
  br label %12

12:                                               ; preds = %11, %1
  %13 = load ptr, ptr %3, align 8
  %14 = call ptr @pg_strdup(ptr noundef %13)
  store ptr %14, ptr %3, align 8
  %15 = load ptr, ptr %3, align 8
  call void @llvm.lifetime.end.p0(i64 8, ptr %3) #10
  ret ptr %15
}

; Function Attrs: nounwind uwtable
define internal void @check_locale_name(i32 noundef %0, ptr noundef %1, ptr noundef %2) #0 {
  %4 = alloca i32, align 4
  %5 = alloca ptr, align 8
  %6 = alloca ptr, align 8
  %7 = alloca ptr, align 8
  %8 = alloca ptr, align 8
  store i32 %0, ptr %4, align 4
  store ptr %1, ptr %5, align 8
  store ptr %2, ptr %6, align 8
  call void @llvm.lifetime.start.p0(i64 8, ptr %7) #10
  call void @llvm.lifetime.start.p0(i64 8, ptr %8) #10
  %9 = load ptr, ptr %5, align 8
  %10 = icmp ne ptr %9, null
  br i1 %10, label %11, label %19

11:                                               ; preds = %3
  %12 = load ptr, ptr %5, align 8
  %13 = call zeroext i1 @pg_is_ascii(ptr noundef %12)
  br i1 %13, label %19, label %14

14:                                               ; preds = %11
  br label %15

15:                                               ; preds = %14
  %16 = load ptr, ptr %5, align 8
  call void (i32, i32, ptr, ...) @pg_log_generic(i32 noundef 4, i32 noundef 0, ptr noundef @.str.151, ptr noundef %16)
  call void @exit(i32 noundef 1) #12
  unreachable

17:                                               ; No predecessors!
  br label %18

18:                                               ; preds = %17
  br label %19

19:                                               ; preds = %18, %11, %3
  %20 = load ptr, ptr %6, align 8
  %21 = icmp ne ptr %20, null
  br i1 %21, label %22, label %24

22:                                               ; preds = %19
  %23 = load ptr, ptr %6, align 8
  store ptr null, ptr %23, align 8
  br label %24

24:                                               ; preds = %22, %19
  %25 = load i32, ptr %4, align 4
  %26 = call ptr @save_global_locale(i32 noundef %25)
  store ptr %26, ptr %7, align 8
  %27 = load ptr, ptr %5, align 8
  %28 = icmp ne ptr %27, null
  br i1 %28, label %30, label %29

29:                                               ; preds = %24
  store ptr @.str.152, ptr %5, align 8
  br label %30

30:                                               ; preds = %29, %24
  %31 = load i32, ptr %4, align 4
  %32 = load ptr, ptr %5, align 8
  %33 = call ptr @setlocale(i32 noundef %31, ptr noundef %32) #10
  store ptr %33, ptr %8, align 8
  %34 = load ptr, ptr %8, align 8
  %35 = icmp ne ptr %34, null
  br i1 %35, label %36, label %43

36:                                               ; preds = %30
  %37 = load ptr, ptr %6, align 8
  %38 = icmp ne ptr %37, null
  br i1 %38, label %39, label %43

39:                                               ; preds = %36
  %40 = load ptr, ptr %8, align 8
  %41 = call ptr @pg_strdup(ptr noundef %40)
  %42 = load ptr, ptr %6, align 8
  store ptr %41, ptr %42, align 8
  br label %43

43:                                               ; preds = %39, %36, %30
  %44 = load i32, ptr %4, align 4
  %45 = load ptr, ptr %7, align 8
  call void @restore_global_locale(i32 noundef %44, ptr noundef %45)
  %46 = load ptr, ptr %8, align 8
  %47 = icmp eq ptr %46, null
  br i1 %47, label %48, label %59

48:                                               ; preds = %43
  %49 = load ptr, ptr %5, align 8
  %50 = load i8, ptr %49, align 1
  %51 = icmp ne i8 %50, 0
  br i1 %51, label %52, label %54

52:                                               ; preds = %48
  %53 = load ptr, ptr %5, align 8
  call void (i32, i32, ptr, ...) @pg_log_generic(i32 noundef 4, i32 noundef 0, ptr noundef @.str.153, ptr noundef %53)
  call void (i32, i32, ptr, ...) @pg_log_generic(i32 noundef 4, i32 noundef 2, ptr noundef @.str.154)
  call void @exit(i32 noundef 1) #12
  unreachable

54:                                               ; preds = %48
  br label %55

55:                                               ; preds = %54
  call void (i32, i32, ptr, ...) @pg_log_generic(i32 noundef 4, i32 noundef 0, ptr noundef @.str.155)
  call void @exit(i32 noundef 1) #12
  unreachable

56:                                               ; No predecessors!
  br label %57

57:                                               ; preds = %56
  br label %58

58:                                               ; preds = %57
  br label %59

59:                                               ; preds = %58, %43
  %60 = load ptr, ptr %6, align 8
  %61 = icmp ne ptr %60, null
  br i1 %61, label %62, label %72

62:                                               ; preds = %59
  %63 = load ptr, ptr %6, align 8
  %64 = load ptr, ptr %63, align 8
  %65 = call zeroext i1 @pg_is_ascii(ptr noundef %64)
  br i1 %65, label %72, label %66

66:                                               ; preds = %62
  br label %67

67:                                               ; preds = %66
  %68 = load ptr, ptr %6, align 8
  %69 = load ptr, ptr %68, align 8
  call void (i32, i32, ptr, ...) @pg_log_generic(i32 noundef 4, i32 noundef 0, ptr noundef @.str.151, ptr noundef %69)
  call void @exit(i32 noundef 1) #12
  unreachable

70:                                               ; No predecessors!
  br label %71

71:                                               ; preds = %70
  br label %72

72:                                               ; preds = %71, %62, %59
  call void @llvm.lifetime.end.p0(i64 8, ptr %8) #10
  call void @llvm.lifetime.end.p0(i64 8, ptr %7) #10
  ret void
}