; Function Attrs: nounwind uwtable
define internal fastcc void @check_locale_name(i32 noundef range(i32 0, 6) %0, ptr noundef %1, ptr noundef nonnull captures(none) %2) unnamed_addr #0 {
  %.not = icmp eq ptr %1, null
  br i1 %.not, label %7, label %4

4:                                                ; preds = %3
  %5 = tail call zeroext i1 @pg_is_ascii(ptr noundef nonnull %1) #19
  br i1 %5, label %7, label %6

6:                                                ; preds = %4
  tail call void (i32, i32, ptr, ...) @pg_log_generic(i32 noundef 4, i32 noundef 0, ptr noundef nonnull @.str.151, ptr noundef nonnull %1) #19
  tail call void @exit(i32 noundef 1) #20
  unreachable

7:                                                ; preds = %3, %4
  store ptr null, ptr %2, align 8
  %8 = tail call ptr @setlocale(i32 noundef range(i32 0, 6) %0, ptr noundef null) #19
  %.not.i = icmp eq ptr %8, null
  br i1 %.not.i, label %9, label %save_global_locale.exit

9:                                                ; preds = %7
  tail call void (i32, i32, ptr, ...) @pg_log_generic(i32 noundef 4, i32 noundef 0, ptr noundef nonnull @.str.156) #19
  tail call void @exit(i32 noundef 1) #20
  unreachable

save_global_locale.exit:                          ; preds = %7
  %10 = tail call ptr @pg_strdup(ptr noundef nonnull %8) #19
  %spec.store.select = select i1 %.not, ptr @.str.152, ptr %1
  %11 = tail call ptr @setlocale(i32 noundef %0, ptr noundef nonnull %spec.store.select) #19
  %.not23 = icmp eq ptr %11, null
  br i1 %.not23, label %14, label %12

12:                                               ; preds = %save_global_locale.exit
  %13 = tail call ptr @pg_strdup(ptr noundef nonnull %11) #19
  store ptr %13, ptr %2, align 8
  br label %14

14:                                               ; preds = %12, %save_global_locale.exit
  %15 = tail call ptr @setlocale(i32 noundef range(i32 0, 6) %0, ptr noundef %10) #19
  %.not.i25 = icmp eq ptr %15, null
  br i1 %.not.i25, label %16, label %restore_global_locale.exit

16:                                               ; preds = %14
  tail call void (i32, i32, ptr, ...) @pg_log_generic(i32 noundef 4, i32 noundef 0, ptr noundef nonnull @.str.157, ptr noundef %10) #19
  tail call void @exit(i32 noundef 1) #20
  unreachable

restore_global_locale.exit:                       ; preds = %14
  tail call void @free(ptr noundef %10) #19
  br i1 %.not23, label %17, label %21

17:                                               ; preds = %restore_global_locale.exit
  %18 = load i8, ptr %spec.store.select, align 1
  %.not24 = icmp eq i8 %18, 0
  br i1 %.not24, label %20, label %19

19:                                               ; preds = %17
  tail call void (i32, i32, ptr, ...) @pg_log_generic(i32 noundef 4, i32 noundef 0, ptr noundef nonnull @.str.153, ptr noundef nonnull %spec.store.select) #19
  tail call void (i32, i32, ptr, ...) @pg_log_generic(i32 noundef 4, i32 noundef 2, ptr noundef nonnull @.str.154) #19
  tail call void @exit(i32 noundef 1) #20
  unreachable

20:                                               ; preds = %17
  tail call void (i32, i32, ptr, ...) @pg_log_generic(i32 noundef 4, i32 noundef 0, ptr noundef nonnull @.str.155) #19
  tail call void @exit(i32 noundef 1) #20
  unreachable

21:                                               ; preds = %restore_global_locale.exit
  %22 = load ptr, ptr %2, align 8
  %23 = tail call zeroext i1 @pg_is_ascii(ptr noundef %22) #19
  br i1 %23, label %26, label %24

24:                                               ; preds = %21
  %25 = load ptr, ptr %2, align 8
  tail call void (i32, i32, ptr, ...) @pg_log_generic(i32 noundef 4, i32 noundef 0, ptr noundef nonnull @.str.151, ptr noundef %25) #19
  tail call void @exit(i32 noundef 1) #20
  unreachable

26:                                               ; preds = %21
  ret void
}